target datalayout = "e-m:e-p270:32:32-p271:32:32-p272:64:64-i64:64-i128:128-f80:128-n8:16:32:64-S128"
target triple = "x86_64-pc-linux-gnu"

%"class.grpc_core::Timestamp" = type { i64 }
%"class.grpc_core::HPackTable::MementoRingBuffer" = type { i32, i32, i32, i32, %"class.grpc_core::Timestamp", %"class.std::vector" }
%"class.std::vector" = type { %"struct.std::_Vector_base" }
%"struct.std::_Vector_base" = type { %"struct.std::_Vector_base<grpc_core::HPackTable::Memento, std::allocator<grpc_core::HPackTable::Memento>>::_Vector_impl" }
%"struct.std::_Vector_base<grpc_core::HPackTable::Memento, std::allocator<grpc_core::HPackTable::Memento>>::_Vector_impl" = type { %"struct.std::_Vector_base<grpc_core::HPackTable::Memento, std::allocator<grpc_core::HPackTable::Memento>>::_Vector_impl_data" }
%"struct.std::_Vector_base<grpc_core::HPackTable::Memento, std::allocator<grpc_core::HPackTable::Memento>>::_Vector_impl_data" = type { ptr, ptr, ptr }
%"struct.grpc_core::HPackTable::Memento" = type { %"class.grpc_core::ParsedMetadata", %"class.grpc_core::UniquePtrWithBitset" }
%"class.grpc_core::ParsedMetadata" = type <{ ptr, %"union.grpc_core::metadata_detail::Buffer", i32, [4 x i8] }>
%"union.grpc_core::metadata_detail::Buffer" = type { %struct.grpc_slice }
%struct.grpc_slice = type { ptr, %"union.grpc_slice::grpc_slice_data" }
%"union.grpc_slice::grpc_slice_data" = type { %"struct.grpc_slice::grpc_slice_data::grpc_slice_refcounted", [8 x i8] }
%"struct.grpc_slice::grpc_slice_data::grpc_slice_refcounted" = type { i64, ptr }
%"class.grpc_core::UniquePtrWithBitset" = type { i64 }

; Function Attrs: mustprogress nounwind uwtable
define linkonce_odr noundef nonnull align 8 dereferenceable(56) ptr @_ZNKSt6vectorIN9grpc_core10HPackTable7MementoESaIS2_EEixEm(ptr noundef nonnull align 8 dereferenceable(24) %0, i64 noundef %1) #8 comdat align 2 {
  %3 = alloca ptr, align 8
  %4 = alloca i64, align 8
  store ptr %0, ptr %3, align 8, !tbaa !35
  store i64 %1, ptr %4, align 8, !tbaa !24
  %5 = load ptr, ptr %3, align 8
  %6 = getelementptr inbounds nuw %"struct.std::_Vector_base", ptr %5, i32 0, i32 0
  %7 = getelementptr inbounds nuw %"struct.std::_Vector_base<grpc_core::HPackTable::Memento, std::allocator<grpc_core::HPackTable::Memento>>::_Vector_impl_data", ptr %6, i32 0, i32 0
  %8 = load ptr, ptr %7, align 8, !tbaa !38
  %9 = load i64, ptr %4, align 8, !tbaa !24
  %10 = getelementptr inbounds nuw %"struct.grpc_core::HPackTable::Memento", ptr %8, i64 %9
  ret ptr %10
}

; Function Attrs: mustprogress nounwind uwtable
define noundef ptr @_ZNK9grpc_core10HPackTable17MementoRingBuffer4PeekEj(ptr noundef nonnull align 8 dereferenceable(48) %0, i32 noundef %1) #8 align 2 {
  %3 = alloca ptr, align 8
  %4 = alloca ptr, align 8
  %5 = alloca i32, align 4
  %6 = alloca i32, align 4
  store ptr %0, ptr %4, align 8, !tbaa !3
  store i32 %1, ptr %5, align 4, !tbaa !19
  %7 = load ptr, ptr %4, align 8
  %8 = load i32, ptr %5, align 4, !tbaa !19
  %9 = getelementptr inbounds nuw %"class.grpc_core::HPackTable::MementoRingBuffer", ptr %7, i32 0, i32 1
  %10 = load i32, ptr %9, align 4, !tbaa !10
  %11 = icmp uge i32 %8, %10
  br i1 %11, label %12, label %13

12:                                               ; preds = %2
  store ptr null, ptr %3, align 8
  br label %29

13:                                               ; preds = %2
  call void @llvm.lifetime.start.p0(i64 4, ptr %6) #3
  %14 = getelementptr inbounds nuw %"class.grpc_core::HPackTable::MementoRingBuffer", ptr %7, i32 0, i32 1
  %15 = load i32, ptr %14, align 4, !tbaa !10
  %16 = sub i32 %15, 1
  %17 = load i32, ptr %5, align 4, !tbaa !19
  %18 = sub i32 %16, %17
  %19 = getelementptr inbounds nuw %"class.grpc_core::HPackTable::MementoRingBuffer", ptr %7, i32 0, i32 0
  %20 = load i32, ptr %19, align 8, !tbaa !23
  %21 = add i32 %18, %20
  %22 = getelementptr inbounds nuw %"class.grpc_core::HPackTable::MementoRingBuffer", ptr %7, i32 0, i32 2
  %23 = load i32, ptr %22, align 8, !tbaa !20
  %24 = urem i32 %21, %23
  store i32 %24, ptr %6, align 4, !tbaa !19
  %25 = getelementptr inbounds nuw %"class.grpc_core::HPackTable::MementoRingBuffer", ptr %7, i32 0, i32 5
  %26 = load i32, ptr %6, align 4, !tbaa !19
  %27 = zext i32 %26 to i64
  %28 = call noundef nonnull align 8 dereferenceable(56) ptr @_ZNKSt6vectorIN9grpc_core10HPackTable7MementoESaIS2_EEixEm(ptr noundef nonnull align 8 dereferenceable(24) %25, i64 noundef %27) #3
  store ptr %28, ptr %3, align 8
  call void @llvm.lifetime.end.p0(i64 4, ptr %6) #3
  br label %29

29:                                               ; preds = %13, %12
  %30 = load ptr, ptr %3, align 8
  ret ptr %30
}