; Function Attrs: mustprogress nofree norecurse nosync nounwind willreturn memory(argmem: read) uwtable
define noundef ptr @_ZNK9grpc_core10HPackTable17MementoRingBuffer4PeekEj(ptr noundef nonnull readonly align 8 captures(none) dereferenceable(48) %0, i32 noundef %1) local_unnamed_addr #9 align 2 {
  %3 = getelementptr inbounds nuw i8, ptr %0, i64 4
  %4 = load i32, ptr %3, align 4, !tbaa !3
  %.not = icmp ult i32 %1, %4
  br i1 %.not, label %5, label %17

5:                                                ; preds = %2
  %6 = xor i32 %1, -1
  %7 = add i32 %4, %6
  %8 = load i32, ptr %0, align 8, !tbaa !35
  %9 = add i32 %7, %8
  %10 = getelementptr inbounds nuw i8, ptr %0, i64 8
  %11 = load i32, ptr %10, align 8, !tbaa !16
  %12 = urem i32 %9, %11
  %13 = getelementptr inbounds nuw i8, ptr %0, i64 24
  %14 = zext i32 %12 to i64
  %15 = load ptr, ptr %13, align 8, !tbaa !19
  %16 = getelementptr inbounds nuw %"struct.grpc_core::HPackTable::Memento", ptr %15, i64 %14
  br label %17

17:                                               ; preds = %2, %5
  %.0 = phi ptr [ %16, %5 ], [ null, %2 ]
  ret ptr %.0
}